target datalayout = "e-m:e-p270:32:32-p271:32:32-p272:64:64-i64:64-i128:128-f80:128-n8:16:32:64-S128"
target triple = "x86_64-pc-linux-gnu"

@hf_zbee_zdp_power = internal global i32 0, align 4

; Function Attrs: nounwind uwtable
define hidden void @zdp_parse_power_desc(ptr noundef %0, i32 noundef %1, ptr noundef %2, ptr noundef %3) #0 {
  %5 = alloca ptr, align 8
  %6 = alloca i32, align 4
  %7 = alloca ptr, align 8
  %8 = alloca ptr, align 8
  store ptr %0, ptr %5, align 8
  store i32 %1, ptr %6, align 4
  store ptr %2, ptr %7, align 8
  store ptr %3, ptr %8, align 8
  %9 = load ptr, ptr %5, align 8
  %10 = load ptr, ptr %7, align 8
  %11 = load ptr, ptr %8, align 8
  %12 = load i32, ptr %11, align 4
  %13 = load i32, ptr @hf_zbee_zdp_power, align 4
  %14 = load i32, ptr %6, align 4
  %15 = call ptr @proto_tree_add_bitmask_with_flags(ptr noundef %9, ptr noundef %10, i32 noundef %12, i32 noundef %13, i32 noundef %14, ptr noundef @zdp_parse_power_desc.power_desc, i32 noundef -2147483648, i32 noundef 1)
  %16 = load ptr, ptr %8, align 8
  %17 = load i32, ptr %16, align 4
  %18 = add i32 %17, 2
  store i32 %18, ptr %16, align 4
  ret void
}