; Function Attrs: nounwind uwtable
define hidden void @zdp_parse_power_desc(ptr noundef %0, i32 noundef %1, ptr noundef %2, ptr noundef captures(none) %3) local_unnamed_addr #0 {
  %5 = load i32, ptr %3, align 4
  %6 = load i32, ptr @hf_zbee_zdp_power, align 4
  %7 = tail call ptr @proto_tree_add_bitmask_with_flags(ptr noundef %0, ptr noundef %2, i32 noundef %5, i32 noundef %6, i32 noundef %1, ptr noundef nonnull @zdp_parse_power_desc.power_desc, i32 noundef -2147483648, i32 noundef 1) #4
  %8 = load i32, ptr %3, align 4
  %9 = add i32 %8, 2
  store i32 %9, ptr %3, align 4
  ret void
}